target datalayout = "e-m:e-p270:32:32-p271:32:32-p272:64:64-i64:64-i128:128-f80:128-n8:16:32:64-S128"
target triple = "x86_64-pc-linux-gnu"

%"class.std::__shared_count" = type { ptr }
%"class.duckdb_apache::thrift::TBase" = type { ptr }
%"class.duckdb::vector" = type { %"class.std::vector" }
%"class.std::vector" = type { %"struct.std::_Vector_base" }
%"struct.std::_Vector_base" = type { %"struct.std::_Vector_base<duckdb::LogicalType, std::allocator<duckdb::LogicalType>>::_Vector_impl" }
%"struct.std::_Vector_base<duckdb::LogicalType, std::allocator<duckdb::LogicalType>>::_Vector_impl" = type { %"struct.std::_Vector_base<duckdb::LogicalType, std::allocator<duckdb::LogicalType>>::_Vector_impl_data" }
%"struct.std::_Vector_base<duckdb::LogicalType, std::allocator<duckdb::LogicalType>>::_Vector_impl_data" = type { ptr, ptr, ptr }
%"class.duckdb::vector.435" = type { %"class.std::vector.436" }
%"class.std::vector.436" = type { %"struct.std::_Vector_base.437" }
%"struct.std::_Vector_base.437" = type { %"struct.std::_Vector_base<duckdb::unique_ptr<duckdb::ColumnWriterState>, std::allocator<duckdb::unique_ptr<duckdb::ColumnWriterState>>>::_Vector_impl" }
%"struct.std::_Vector_base<duckdb::unique_ptr<duckdb::ColumnWriterState>, std::allocator<duckdb::unique_ptr<duckdb::ColumnWriterState>>>::_Vector_impl" = type { %"struct.std::_Vector_base<duckdb::unique_ptr<duckdb::ColumnWriterState>, std::allocator<duckdb::unique_ptr<duckdb::ColumnWriterState>>>::_Vector_impl_data" }
%"struct.std::_Vector_base<duckdb::unique_ptr<duckdb::ColumnWriterState>, std::allocator<duckdb::unique_ptr<duckdb::ColumnWriterState>>>::_Vector_impl_data" = type { ptr, ptr, ptr }
%"struct.duckdb::PreparedRowGroup" = type { %"class.duckdb_parquet::RowGroup", %"class.duckdb::vector.435" }
%"class.duckdb_parquet::RowGroup" = type <{ %"class.duckdb_apache::thrift::TBase", %"class.duckdb::vector.423", i64, i64, %"class.duckdb::vector.429", i64, i64, i16, %"struct.duckdb_parquet::_RowGroup__isset", [5 x i8] }>
%"class.duckdb::vector.423" = type { %"class.std::vector.424" }
%"class.std::vector.424" = type { %"struct.std::_Vector_base.425" }
%"struct.std::_Vector_base.425" = type { %"struct.std::_Vector_base<duckdb_parquet::ColumnChunk, std::allocator<duckdb_parquet::ColumnChunk>>::_Vector_impl" }
%"struct.std::_Vector_base<duckdb_parquet::ColumnChunk, std::allocator<duckdb_parquet::ColumnChunk>>::_Vector_impl" = type { %"struct.std::_Vector_base<duckdb_parquet::ColumnChunk, std::allocator<duckdb_parquet::ColumnChunk>>::_Vector_impl_data" }
%"struct.std::_Vector_base<duckdb_parquet::ColumnChunk, std::allocator<duckdb_parquet::ColumnChunk>>::_Vector_impl_data" = type { ptr, ptr, ptr }
%"class.duckdb::vector.429" = type { %"class.std::vector.430" }
%"class.std::vector.430" = type { %"struct.std::_Vector_base.431" }
%"struct.std::_Vector_base.431" = type { %"struct.std::_Vector_base<duckdb_parquet::SortingColumn, std::allocator<duckdb_parquet::SortingColumn>>::_Vector_impl" }
%"struct.std::_Vector_base<duckdb_parquet::SortingColumn, std::allocator<duckdb_parquet::SortingColumn>>::_Vector_impl" = type { %"struct.std::_Vector_base<duckdb_parquet::SortingColumn, std::allocator<duckdb_parquet::SortingColumn>>::_Vector_impl_data" }
%"struct.std::_Vector_base<duckdb_parquet::SortingColumn, std::allocator<duckdb_parquet::SortingColumn>>::_Vector_impl_data" = type { ptr, ptr, ptr }
%"struct.duckdb_parquet::_RowGroup__isset" = type { i8 }
%"class.duckdb::ColumnDataCollection" = type { %"class.duckdb::shared_ptr.441", %"class.duckdb::vector", i64, %"class.duckdb::vector.445", %"class.duckdb::vector.451", i8, %"class.duckdb::optional_idx" }
%"class.duckdb::shared_ptr.441" = type { %"class.std::shared_ptr.442" }
%"class.std::shared_ptr.442" = type { %"class.std::__shared_ptr.443" }
%"class.std::__shared_ptr.443" = type { ptr, %"class.std::__shared_count" }
%"class.duckdb::vector.445" = type { %"class.std::vector.446" }
%"class.std::vector.446" = type { %"struct.std::_Vector_base.447" }
%"struct.std::_Vector_base.447" = type { %"struct.std::_Vector_base<duckdb::unique_ptr<duckdb::ColumnDataCollectionSegment>, std::allocator<duckdb::unique_ptr<duckdb::ColumnDataCollectionSegment>>>::_Vector_impl" }
%"struct.std::_Vector_base<duckdb::unique_ptr<duckdb::ColumnDataCollectionSegment>, std::allocator<duckdb::unique_ptr<duckdb::ColumnDataCollectionSegment>>>::_Vector_impl" = type { %"struct.std::_Vector_base<duckdb::unique_ptr<duckdb::ColumnDataCollectionSegment>, std::allocator<duckdb::unique_ptr<duckdb::ColumnDataCollectionSegment>>>::_Vector_impl_data" }
%"struct.std::_Vector_base<duckdb::unique_ptr<duckdb::ColumnDataCollectionSegment>, std::allocator<duckdb::unique_ptr<duckdb::ColumnDataCollectionSegment>>>::_Vector_impl_data" = type { ptr, ptr, ptr }
%"class.duckdb::vector.451" = type { %"class.std::vector.452" }
%"class.std::vector.452" = type { %"struct.std::_Vector_base.453" }
%"struct.std::_Vector_base.453" = type { %"struct.std::_Vector_base<duckdb::ColumnDataCopyFunction, std::allocator<duckdb::ColumnDataCopyFunction>>::_Vector_impl" }
%"struct.std::_Vector_base<duckdb::ColumnDataCopyFunction, std::allocator<duckdb::ColumnDataCopyFunction>>::_Vector_impl" = type { %"struct.std::_Vector_base<duckdb::ColumnDataCopyFunction, std::allocator<duckdb::ColumnDataCopyFunction>>::_Vector_impl_data" }
%"struct.std::_Vector_base<duckdb::ColumnDataCopyFunction, std::allocator<duckdb::ColumnDataCopyFunction>>::_Vector_impl_data" = type { ptr, ptr, ptr }
%"class.duckdb::optional_idx" = type { i64 }

; Function Attrs: mustprogress nounwind uwtable
define linkonce_odr void @_ZNSt15__new_allocatorIN6duckdb10unique_ptrINS0_17ColumnWriterStateESt14default_deleteIS2_ELb1EEEEC2Ev(ptr noundef nonnull align 1 dereferenceable(1) %0) unnamed_addr #7 comdat align 2 {
  %2 = alloca ptr, align 8
  store ptr %0, ptr %2, align 8, !tbaa !808
  ret void
}

; Function Attrs: mustprogress nounwind uwtable
define linkonce_odr void @_ZNSt12_Vector_baseIN6duckdb10unique_ptrINS0_17ColumnWriterStateESt14default_deleteIS2_ELb1EEESaIS5_EE17_Vector_impl_dataC2Ev(ptr noundef nonnull align 8 dereferenceable(24) %0) unnamed_addr #7 comdat align 2 {
  %2 = alloca ptr, align 8
  store ptr %0, ptr %2, align 8, !tbaa !806
  %3 = load ptr, ptr %2, align 8
  %4 = getelementptr inbounds nuw %"struct.std::_Vector_base<duckdb::unique_ptr<duckdb::ColumnWriterState>, std::allocator<duckdb::unique_ptr<duckdb::ColumnWriterState>>>::_Vector_impl_data", ptr %3, i32 0, i32 0
  store ptr null, ptr %4, align 8, !tbaa !448
  %5 = getelementptr inbounds nuw %"struct.std::_Vector_base<duckdb::unique_ptr<duckdb::ColumnWriterState>, std::allocator<duckdb::unique_ptr<duckdb::ColumnWriterState>>>::_Vector_impl_data", ptr %3, i32 0, i32 1
  store ptr null, ptr %5, align 8, !tbaa !399
  %6 = getelementptr inbounds nuw %"struct.std::_Vector_base<duckdb::unique_ptr<duckdb::ColumnWriterState>, std::allocator<duckdb::unique_ptr<duckdb::ColumnWriterState>>>::_Vector_impl_data", ptr %3, i32 0, i32 2
  store ptr null, ptr %6, align 8, !tbaa !401
  ret void
}

; Function Attrs: mustprogress nounwind uwtable
define linkonce_odr void @_ZNSaIN6duckdb10unique_ptrINS_17ColumnWriterStateESt14default_deleteIS1_ELb1EEEEC2Ev(ptr noundef nonnull align 1 dereferenceable(1) %0) unnamed_addr #7 comdat align 2 {
  %2 = alloca ptr, align 8
  store ptr %0, ptr %2, align 8, !tbaa !804
  %3 = load ptr, ptr %2, align 8
  call void @_ZNSt15__new_allocatorIN6duckdb10unique_ptrINS0_17ColumnWriterStateESt14default_deleteIS2_ELb1EEEEC2Ev(ptr noundef nonnull align 1 dereferenceable(1) %3) #3
  ret void
}

; Function Attrs: mustprogress nounwind uwtable
define linkonce_odr void @_ZNSt12_Vector_baseIN6duckdb10unique_ptrINS0_17ColumnWriterStateESt14default_deleteIS2_ELb1EEESaIS5_EE12_Vector_implC2Ev(ptr noundef nonnull align 8 dereferenceable(24) %0) unnamed_addr #7 comdat align 2 {
  %2 = alloca ptr, align 8
  store ptr %0, ptr %2, align 8, !tbaa !802
  %3 = load ptr, ptr %2, align 8
  call void @_ZNSaIN6duckdb10unique_ptrINS_17ColumnWriterStateESt14default_deleteIS1_ELb1EEEEC2Ev(ptr noundef nonnull align 1 dereferenceable(1) %3) #3
  call void @_ZNSt12_Vector_baseIN6duckdb10unique_ptrINS0_17ColumnWriterStateESt14default_deleteIS2_ELb1EEESaIS5_EE17_Vector_impl_dataC2Ev(ptr noundef nonnull align 8 dereferenceable(24) %3) #3
  ret void
}

; Function Attrs: mustprogress nounwind uwtable
define linkonce_odr void @_ZNSt12_Vector_baseIN6duckdb10unique_ptrINS0_17ColumnWriterStateESt14default_deleteIS2_ELb1EEESaIS5_EEC2Ev(ptr noundef nonnull align 8 dereferenceable(24) %0) unnamed_addr #7 comdat align 2 {
  %2 = alloca ptr, align 8
  store ptr %0, ptr %2, align 8, !tbaa !800
  %3 = load ptr, ptr %2, align 8
  %4 = getelementptr inbounds nuw %"struct.std::_Vector_base.437", ptr %3, i32 0, i32 0
  call void @_ZNSt12_Vector_baseIN6duckdb10unique_ptrINS0_17ColumnWriterStateESt14default_deleteIS2_ELb1EEESaIS5_EE12_Vector_implC2Ev(ptr noundef nonnull align 8 dereferenceable(24) %4) #3
  ret void
}

; Function Attrs: mustprogress nounwind uwtable
define linkonce_odr void @_ZNSt6vectorIN6duckdb10unique_ptrINS0_17ColumnWriterStateESt14default_deleteIS2_ELb1EEESaIS5_EEC2Ev(ptr noundef nonnull align 8 dereferenceable(24) %0) unnamed_addr #7 comdat align 2 {
  %2 = alloca ptr, align 8
  store ptr %0, ptr %2, align 8, !tbaa !397
  %3 = load ptr, ptr %2, align 8
  call void @_ZNSt12_Vector_baseIN6duckdb10unique_ptrINS0_17ColumnWriterStateESt14default_deleteIS2_ELb1EEESaIS5_EEC2Ev(ptr noundef nonnull align 8 dereferenceable(24) %3) #3
  ret void
}

; Function Attrs: mustprogress nounwind uwtable
define linkonce_odr void @_ZN6duckdb6vectorINS_10unique_ptrINS_17ColumnWriterStateESt14default_deleteIS2_ELb1EEELb1EEC2Ev(ptr noundef nonnull align 8 dereferenceable(24) %0) unnamed_addr #7 comdat align 2 {
  %2 = alloca ptr, align 8
  store ptr %0, ptr %2, align 8, !tbaa !365
  %3 = load ptr, ptr %2, align 8
  call void @_ZNSt6vectorIN6duckdb10unique_ptrINS0_17ColumnWriterStateESt14default_deleteIS2_ELb1EEESaIS5_EEC2Ev(ptr noundef nonnull align 8 dereferenceable(24) %3) #3
  ret void
}

; Function Attrs: inlinehint mustprogress nounwind uwtable
define linkonce_odr void @_ZN6duckdb16PreparedRowGroupC2Ev(ptr noundef nonnull align 8 dereferenceable(120) %0) unnamed_addr #8 comdat align 2 {
  %2 = alloca ptr, align 8
  store ptr %0, ptr %2, align 8, !tbaa !346
  %3 = load ptr, ptr %2, align 8
  %4 = getelementptr inbounds nuw %"struct.duckdb::PreparedRowGroup", ptr %3, i32 0, i32 0
  call void @_ZN14duckdb_parquet8RowGroupC1Ev(ptr noundef nonnull align 8 dereferenceable(91) %4) #3
  %5 = getelementptr inbounds nuw %"struct.duckdb::PreparedRowGroup", ptr %3, i32 0, i32 1
  call void @_ZN6duckdb6vectorINS_10unique_ptrINS_17ColumnWriterStateESt14default_deleteIS2_ELb1EEELb1EEC2Ev(ptr noundef nonnull align 8 dereferenceable(24) %5) #3
  ret void
}

; Function Attrs: mustprogress nounwind uwtable
define linkonce_odr noundef nonnull align 8 dereferenceable(8) ptr @_ZNK6duckdb20ColumnDataCollection5CountEv(ptr noundef nonnull align 8 dereferenceable(112) %0) #7 comdat align 2 {
  %2 = alloca ptr, align 8
  store ptr %0, ptr %2, align 8, !tbaa !344
  %3 = load ptr, ptr %2, align 8
  %4 = getelementptr inbounds nuw %"class.duckdb::ColumnDataCollection", ptr %3, i32 0, i32 2
  ret ptr %4
}

; Function Attrs: mustprogress uwtable
define void @_ZN6duckdb13ParquetWriter5FlushERNS_20ColumnDataCollectionE(ptr noundef nonnull align 8 dereferenceable(672) %0, ptr noundef nonnull align 8 dereferenceable(112) %1) #4 align 2 personality ptr @__gxx_personality_v0 {
  %3 = alloca ptr, align 8
  %4 = alloca ptr, align 8
  %5 = alloca %"struct.duckdb::PreparedRowGroup", align 8
  %6 = alloca ptr, align 8
  %7 = alloca i32, align 4
  store ptr %0, ptr %3, align 8, !tbaa !107
  store ptr %1, ptr %4, align 8, !tbaa !344
  %8 = load ptr, ptr %3, align 8
  %9 = load ptr, ptr %4, align 8, !tbaa !344
  %10 = call noundef nonnull align 8 dereferenceable(8) ptr @_ZNK6duckdb20ColumnDataCollection5CountEv(ptr noundef nonnull align 8 dereferenceable(112) %9)
  %11 = load i64, ptr %10, align 8, !tbaa !147
  %12 = icmp eq i64 %11, 0
  br i1 %12, label %13, label %14

13:                                               ; preds = %2
  br label %20

14:                                               ; preds = %2
  call void @llvm.lifetime.start.p0(i64 120, ptr %5) #3
  call void @_ZN6duckdb16PreparedRowGroupC2Ev(ptr noundef nonnull align 8 dereferenceable(120) %5) #3
  %15 = load ptr, ptr %4, align 8, !tbaa !344
  invoke void @_ZN6duckdb13ParquetWriter15PrepareRowGroupERNS_20ColumnDataCollectionERNS_16PreparedRowGroupE(ptr noundef nonnull align 8 dereferenceable(672) %8, ptr noundef nonnull align 8 dereferenceable(112) %15, ptr noundef nonnull align 8 dereferenceable(120) %5)
          to label %16 unwind label %21

16:                                               ; preds = %14
  %17 = load ptr, ptr %4, align 8, !tbaa !344
  invoke void @_ZN6duckdb20ColumnDataCollection5ResetEv(ptr noundef nonnull align 8 dereferenceable(112) %17)
          to label %18 unwind label %21

18:                                               ; preds = %16
  invoke void @_ZN6duckdb13ParquetWriter13FlushRowGroupERNS_16PreparedRowGroupE(ptr noundef nonnull align 8 dereferenceable(672) %8, ptr noundef nonnull align 8 dereferenceable(120) %5)
          to label %19 unwind label %21

19:                                               ; preds = %18
  call void @_ZN6duckdb16PreparedRowGroupD2Ev(ptr noundef nonnull align 8 dereferenceable(120) %5) #3
  call void @llvm.lifetime.end.p0(i64 120, ptr %5) #3
  br label %20

20:                                               ; preds = %19, %13
  ret void

21:                                               ; preds = %18, %16, %14
  %22 = landingpad { ptr, i32 }
          cleanup
  %23 = extractvalue { ptr, i32 } %22, 0
  store ptr %23, ptr %6, align 8
  %24 = extractvalue { ptr, i32 } %22, 1
  store i32 %24, ptr %7, align 4
  call void @_ZN6duckdb16PreparedRowGroupD2Ev(ptr noundef nonnull align 8 dereferenceable(120) %5) #3
  call void @llvm.lifetime.end.p0(i64 120, ptr %5) #3
  br label %25

25:                                               ; preds = %21
  %26 = load ptr, ptr %6, align 8
  %27 = load i32, ptr %7, align 4
  %28 = insertvalue { ptr, i32 } poison, ptr %26, 0
  %29 = insertvalue { ptr, i32 } %28, i32 %27, 1
  resume { ptr, i32 } %29
}