; Function Attrs: mustprogress uwtable
define void @_ZN6duckdb13ParquetWriter5FlushERNS_20ColumnDataCollectionE(ptr noundef nonnull align 8 dereferenceable(672) %0, ptr noundef nonnull align 8 dereferenceable(112) %1) local_unnamed_addr #3 align 2 personality ptr @__gxx_personality_v0 {
  %3 = alloca %"struct.duckdb::PreparedRowGroup", align 8
  %4 = getelementptr inbounds nuw i8, ptr %1, i64 40
  %5 = load i64, ptr %4, align 8, !tbaa !65
  %6 = icmp eq i64 %5, 0
  br i1 %6, label %22, label %7

7:                                                ; preds = %2
  call void @llvm.lifetime.start.p0(i64 120, ptr nonnull %3) #27
  call void @_ZN14duckdb_parquet8RowGroupC1Ev(ptr noundef nonnull align 8 dereferenceable(120) %3) #27
  %8 = getelementptr inbounds nuw i8, ptr %3, i64 96
  call void @llvm.memset.p0.i64(ptr noundef nonnull align 8 dereferenceable(24) %8, i8 0, i64 24, i1 false)
  invoke void @_ZN6duckdb13ParquetWriter15PrepareRowGroupERNS_20ColumnDataCollectionERNS_16PreparedRowGroupE(ptr noundef nonnull align 8 dereferenceable(672) %0, ptr noundef nonnull align 8 dereferenceable(112) %1, ptr noundef nonnull align 8 dereferenceable(120) %3)
          to label %9 unwind label %23

9:                                                ; preds = %7
  invoke void @_ZN6duckdb20ColumnDataCollection5ResetEv(ptr noundef nonnull align 8 dereferenceable(112) %1)
          to label %10 unwind label %23

10:                                               ; preds = %9
  invoke void @_ZN6duckdb13ParquetWriter13FlushRowGroupERNS_16PreparedRowGroupE(ptr noundef nonnull align 8 dereferenceable(672) %0, ptr noundef nonnull align 8 dereferenceable(120) %3)
          to label %11 unwind label %23

11:                                               ; preds = %10
  %12 = load ptr, ptr %8, align 8, !tbaa !380
  %13 = getelementptr inbounds nuw i8, ptr %3, i64 104
  %14 = load ptr, ptr %13, align 8, !tbaa !372
  %.not4.i.i.i.i.i = icmp eq ptr %12, %14
  br i1 %.not4.i.i.i.i.i, label %_ZSt8_DestroyIPN6duckdb10unique_ptrINS0_17ColumnWriterStateESt14default_deleteIS2_ELb1EEES5_EvT_S7_RSaIT0_E.exit.i.i, label %.lr.ph.i.i.i.i.i

.lr.ph.i.i.i.i.i:                                 ; preds = %11, %_ZSt8_DestroyIN6duckdb10unique_ptrINS0_17ColumnWriterStateESt14default_deleteIS2_ELb1EEEEvPT_.exit.i.i.i.i.i
  %.05.i.i.i.i.i = phi ptr [ %19, %_ZSt8_DestroyIN6duckdb10unique_ptrINS0_17ColumnWriterStateESt14default_deleteIS2_ELb1EEEEvPT_.exit.i.i.i.i.i ], [ %12, %11 ]
  %15 = load ptr, ptr %.05.i.i.i.i.i, align 8, !tbaa !321
  %.not.i.i.i.i.i.i.i = icmp eq ptr %15, null
  br i1 %.not.i.i.i.i.i.i.i, label %_ZSt8_DestroyIN6duckdb10unique_ptrINS0_17ColumnWriterStateESt14default_deleteIS2_ELb1EEEEvPT_.exit.i.i.i.i.i, label %_ZNKSt14default_deleteIN6duckdb17ColumnWriterStateEEclEPS1_.exit.i.i.i.i.i.i.i

_ZNKSt14default_deleteIN6duckdb17ColumnWriterStateEEclEPS1_.exit.i.i.i.i.i.i.i: ; preds = %.lr.ph.i.i.i.i.i
  %16 = load ptr, ptr %15, align 8, !tbaa !106
  %17 = getelementptr inbounds nuw i8, ptr %16, i64 8
  %18 = load ptr, ptr %17, align 8
  call void %18(ptr noundef nonnull align 8 dereferenceable(112) %15) #27
  br label %_ZSt8_DestroyIN6duckdb10unique_ptrINS0_17ColumnWriterStateESt14default_deleteIS2_ELb1EEEEvPT_.exit.i.i.i.i.i

_ZSt8_DestroyIN6duckdb10unique_ptrINS0_17ColumnWriterStateESt14default_deleteIS2_ELb1EEEEvPT_.exit.i.i.i.i.i: ; preds = %_ZNKSt14default_deleteIN6duckdb17ColumnWriterStateEEclEPS1_.exit.i.i.i.i.i.i.i, %.lr.ph.i.i.i.i.i
  store ptr null, ptr %.05.i.i.i.i.i, align 8, !tbaa !321
  %19 = getelementptr inbounds nuw i8, ptr %.05.i.i.i.i.i, i64 8
  %.not.i.i.i.i.i = icmp eq ptr %19, %14
  br i1 %.not.i.i.i.i.i, label %_ZSt8_DestroyIPN6duckdb10unique_ptrINS0_17ColumnWriterStateESt14default_deleteIS2_ELb1EEES5_EvT_S7_RSaIT0_E.exitthread-pre-split.i.i, label %.lr.ph.i.i.i.i.i, !llvm.loop !378

_ZSt8_DestroyIPN6duckdb10unique_ptrINS0_17ColumnWriterStateESt14default_deleteIS2_ELb1EEES5_EvT_S7_RSaIT0_E.exitthread-pre-split.i.i: ; preds = %_ZSt8_DestroyIN6duckdb10unique_ptrINS0_17ColumnWriterStateESt14default_deleteIS2_ELb1EEEEvPT_.exit.i.i.i.i.i
  %.pr.i.i = load ptr, ptr %8, align 8, !tbaa !380
  br label %_ZSt8_DestroyIPN6duckdb10unique_ptrINS0_17ColumnWriterStateESt14default_deleteIS2_ELb1EEES5_EvT_S7_RSaIT0_E.exit.i.i

_ZSt8_DestroyIPN6duckdb10unique_ptrINS0_17ColumnWriterStateESt14default_deleteIS2_ELb1EEES5_EvT_S7_RSaIT0_E.exit.i.i: ; preds = %_ZSt8_DestroyIPN6duckdb10unique_ptrINS0_17ColumnWriterStateESt14default_deleteIS2_ELb1EEES5_EvT_S7_RSaIT0_E.exitthread-pre-split.i.i, %11
  %20 = phi ptr [ %.pr.i.i, %_ZSt8_DestroyIPN6duckdb10unique_ptrINS0_17ColumnWriterStateESt14default_deleteIS2_ELb1EEES5_EvT_S7_RSaIT0_E.exitthread-pre-split.i.i ], [ %12, %11 ]
  %.not.i.i.i.i = icmp eq ptr %20, null
  br i1 %.not.i.i.i.i, label %_ZN6duckdb16PreparedRowGroupD2Ev.exit, label %21

21:                                               ; preds = %_ZSt8_DestroyIPN6duckdb10unique_ptrINS0_17ColumnWriterStateESt14default_deleteIS2_ELb1EEES5_EvT_S7_RSaIT0_E.exit.i.i
  call void @_ZdlPv(ptr noundef nonnull %20) #28
  br label %_ZN6duckdb16PreparedRowGroupD2Ev.exit

_ZN6duckdb16PreparedRowGroupD2Ev.exit:            ; preds = %_ZSt8_DestroyIPN6duckdb10unique_ptrINS0_17ColumnWriterStateESt14default_deleteIS2_ELb1EEES5_EvT_S7_RSaIT0_E.exit.i.i, %21
  call void @_ZN14duckdb_parquet8RowGroupD1Ev(ptr noundef nonnull align 8 dereferenceable(120) %3) #27
  call void @llvm.lifetime.end.p0(i64 120, ptr nonnull %3) #27
  br label %22

22:                                               ; preds = %2, %_ZN6duckdb16PreparedRowGroupD2Ev.exit
  ret void

23:                                               ; preds = %10, %9, %7
  %24 = landingpad { ptr, i32 }
          cleanup
  call void @_ZN6duckdb16PreparedRowGroupD2Ev(ptr noundef nonnull align 8 dereferenceable(120) %3) #27
  call void @llvm.lifetime.end.p0(i64 120, ptr nonnull %3) #27
  resume { ptr, i32 } %24
}